target datalayout = "e-m:e-p270:32:32-p271:32:32-p272:64:64-i64:64-i128:128-f80:128-n8:16:32:64-S128"
target triple = "x86_64-pc-linux-gnu"

%struct.AVFilterContext = type { ptr, ptr, ptr, ptr, ptr, i32, ptr, ptr, i32, ptr, ptr, i32, i32, ptr, ptr, ptr, ptr, i32, ptr, i32, i32 }
%struct.MixContext = type { ptr, ptr, ptr, i32, i32, i32, ptr, float, float, i32, i32, i32, i32, i32, i32, i32, i32, [4 x i32], [4 x i32], [4 x ptr], ptr, ptr, ptr, %struct.FFFrameSync }
%struct.FFFrameSync = type { ptr, ptr, i32, %struct.AVRational, i64, ptr, ptr, i32, i32, i8, i8, ptr, i32, i32, i32, i32 }
%struct.AVRational = type { i32, i32 }
%struct.AVFilterLink = type { ptr, ptr, ptr, ptr, i32, i32, i32, i32, %struct.AVRational, i32, i32, i32, %struct.AVChannelLayout, %struct.AVRational, ptr, i32, %struct.AVFilterFormatsConfig, %struct.AVFilterFormatsConfig }
%struct.AVChannelLayout = type { i32, i32, %union.anon.1, ptr }
%union.anon.1 = type { i64 }
%struct.AVFilterFormatsConfig = type { ptr, ptr, ptr, ptr, ptr }
%struct.ThreadData = type { ptr, ptr }
%struct.AVFrame = type { [8 x ptr], [8 x i32], ptr, i32, i32, i32, i32, i32, %struct.AVRational, i64, i64, %struct.AVRational, i32, ptr, i32, i32, [8 x ptr], ptr, i32, ptr, i32, i32, i32, i32, i32, i32, i32, i64, ptr, i32, ptr, ptr, i64, i64, i64, i64, ptr, %struct.AVChannelLayout, i64 }

; Function Attrs: nounwind uwtable
define internal i32 @process_frame(ptr noundef %0) #1 {
  %2 = alloca i32, align 4
  %3 = alloca ptr, align 8
  %4 = alloca ptr, align 8
  %5 = alloca ptr, align 8
  %6 = alloca ptr, align 8
  %7 = alloca ptr, align 8
  %8 = alloca ptr, align 8
  %9 = alloca %struct.ThreadData, align 8
  %10 = alloca i32, align 4
  %11 = alloca i32, align 4
  %12 = alloca i32, align 4
  store ptr %0, ptr %3, align 8, !tbaa !94
  call void @llvm.lifetime.start.p0(i64 8, ptr %4) #12
  %13 = load ptr, ptr %3, align 8, !tbaa !94
  %14 = getelementptr inbounds nuw %struct.FFFrameSync, ptr %13, i32 0, i32 1
  %15 = load ptr, ptr %14, align 8, !tbaa !96
  store ptr %15, ptr %4, align 8, !tbaa !4
  call void @llvm.lifetime.start.p0(i64 8, ptr %5) #12
  %16 = load ptr, ptr %4, align 8, !tbaa !4
  %17 = getelementptr inbounds nuw %struct.AVFilterContext, ptr %16, i32 0, i32 7
  %18 = load ptr, ptr %17, align 8, !tbaa !97
  %19 = getelementptr inbounds ptr, ptr %18, i64 0
  %20 = load ptr, ptr %19, align 8, !tbaa !54
  store ptr %20, ptr %5, align 8, !tbaa !54
  call void @llvm.lifetime.start.p0(i64 8, ptr %6) #12
  %21 = load ptr, ptr %3, align 8, !tbaa !94
  %22 = getelementptr inbounds nuw %struct.FFFrameSync, ptr %21, i32 0, i32 6
  %23 = load ptr, ptr %22, align 8, !tbaa !98
  store ptr %23, ptr %6, align 8, !tbaa !22
  call void @llvm.lifetime.start.p0(i64 8, ptr %7) #12
  %24 = load ptr, ptr %6, align 8, !tbaa !22
  %25 = getelementptr inbounds nuw %struct.MixContext, ptr %24, i32 0, i32 22
  %26 = load ptr, ptr %25, align 8, !tbaa !40
  store ptr %26, ptr %7, align 8, !tbaa !99
  call void @llvm.lifetime.start.p0(i64 8, ptr %8) #12
  call void @llvm.lifetime.start.p0(i64 16, ptr %9) #12
  call void @llvm.lifetime.start.p0(i64 4, ptr %10) #12
  call void @llvm.lifetime.start.p0(i64 4, ptr %11) #12
  store i32 0, ptr %10, align 4, !tbaa !42
  br label %27

27:                                               ; preds = %46, %1
  %28 = load i32, ptr %10, align 4, !tbaa !42
  %29 = load ptr, ptr %6, align 8, !tbaa !22
  %30 = getelementptr inbounds nuw %struct.MixContext, ptr %29, i32 0, i32 3
  %31 = load i32, ptr %30, align 8, !tbaa !39
  %32 = icmp slt i32 %28, %31
  br i1 %32, label %33, label %49

33:                                               ; preds = %27
  %34 = load ptr, ptr %6, align 8, !tbaa !22
  %35 = getelementptr inbounds nuw %struct.MixContext, ptr %34, i32 0, i32 23
  %36 = load i32, ptr %10, align 4, !tbaa !42
  %37 = load ptr, ptr %7, align 8, !tbaa !99
  %38 = load i32, ptr %10, align 4, !tbaa !42
  %39 = sext i32 %38 to i64
  %40 = getelementptr inbounds ptr, ptr %37, i64 %39
  %41 = call i32 @ff_framesync_get_frame(ptr noundef %35, i32 noundef %36, ptr noundef %40, i32 noundef 0)
  store i32 %41, ptr %11, align 4, !tbaa !42
  %42 = icmp slt i32 %41, 0
  br i1 %42, label %43, label %45

43:                                               ; preds = %33
  %44 = load i32, ptr %11, align 4, !tbaa !42
  store i32 %44, ptr %2, align 4
  store i32 1, ptr %12, align 4
  br label %137

45:                                               ; preds = %33
  br label %46

46:                                               ; preds = %45
  %47 = load i32, ptr %10, align 4, !tbaa !42
  %48 = add nsw i32 %47, 1
  store i32 %48, ptr %10, align 4, !tbaa !42
  br label %27, !llvm.loop !100

49:                                               ; preds = %27
  %50 = load ptr, ptr %4, align 8, !tbaa !4
  %51 = getelementptr inbounds nuw %struct.AVFilterContext, ptr %50, i32 0, i32 17
  %52 = load i32, ptr %51, align 8, !tbaa !101
  %53 = icmp ne i32 %52, 0
  br i1 %53, label %54, label %82

54:                                               ; preds = %49
  %55 = load ptr, ptr %6, align 8, !tbaa !22
  %56 = getelementptr inbounds nuw %struct.MixContext, ptr %55, i32 0, i32 22
  %57 = load ptr, ptr %56, align 8, !tbaa !40
  %58 = getelementptr inbounds ptr, ptr %57, i64 0
  %59 = load ptr, ptr %58, align 8, !tbaa !102
  %60 = call ptr @av_frame_clone(ptr noundef %59)
  store ptr %60, ptr %8, align 8, !tbaa !102
  %61 = load ptr, ptr %8, align 8, !tbaa !102
  %62 = icmp ne ptr %61, null
  br i1 %62, label %64, label %63

63:                                               ; preds = %54
  store i32 -12, ptr %2, align 4
  store i32 1, ptr %12, align 4
  br label %137

64:                                               ; preds = %54
  %65 = load ptr, ptr %6, align 8, !tbaa !22
  %66 = getelementptr inbounds nuw %struct.MixContext, ptr %65, i32 0, i32 23
  %67 = getelementptr inbounds nuw %struct.FFFrameSync, ptr %66, i32 0, i32 4
  %68 = load i64, ptr %67, align 8, !tbaa !103
  %69 = load ptr, ptr %6, align 8, !tbaa !22
  %70 = getelementptr inbounds nuw %struct.MixContext, ptr %69, i32 0, i32 23
  %71 = getelementptr inbounds nuw %struct.FFFrameSync, ptr %70, i32 0, i32 3
  %72 = load ptr, ptr %5, align 8, !tbaa !54
  %73 = getelementptr inbounds nuw %struct.AVFilterLink, ptr %72, i32 0, i32 13
  %74 = load i64, ptr %71, align 4
  %75 = load i64, ptr %73, align 8
  %76 = call i64 @av_rescale_q(i64 noundef %68, i64 %74, i64 %75) #14
  %77 = load ptr, ptr %8, align 8, !tbaa !102
  %78 = getelementptr inbounds nuw %struct.AVFrame, ptr %77, i32 0, i32 9
  store i64 %76, ptr %78, align 8, !tbaa !104
  %79 = load ptr, ptr %5, align 8, !tbaa !54
  %80 = load ptr, ptr %8, align 8, !tbaa !102
  %81 = call i32 @ff_filter_frame(ptr noundef %79, ptr noundef %80)
  store i32 %81, ptr %2, align 4
  store i32 1, ptr %12, align 4
  br label %137

82:                                               ; preds = %49
  %83 = load ptr, ptr %5, align 8, !tbaa !54
  %84 = load ptr, ptr %5, align 8, !tbaa !54
  %85 = getelementptr inbounds nuw %struct.AVFilterLink, ptr %84, i32 0, i32 6
  %86 = load i32, ptr %85, align 8, !tbaa !68
  %87 = load ptr, ptr %5, align 8, !tbaa !54
  %88 = getelementptr inbounds nuw %struct.AVFilterLink, ptr %87, i32 0, i32 7
  %89 = load i32, ptr %88, align 4, !tbaa !67
  %90 = call ptr @ff_get_video_buffer(ptr noundef %83, i32 noundef %86, i32 noundef %89)
  store ptr %90, ptr %8, align 8, !tbaa !102
  %91 = load ptr, ptr %8, align 8, !tbaa !102
  %92 = icmp ne ptr %91, null
  br i1 %92, label %94, label %93

93:                                               ; preds = %82
  store i32 -12, ptr %2, align 4
  store i32 1, ptr %12, align 4
  br label %137

94:                                               ; preds = %82
  %95 = load ptr, ptr %6, align 8, !tbaa !22
  %96 = getelementptr inbounds nuw %struct.MixContext, ptr %95, i32 0, i32 23
  %97 = getelementptr inbounds nuw %struct.FFFrameSync, ptr %96, i32 0, i32 4
  %98 = load i64, ptr %97, align 8, !tbaa !103
  %99 = load ptr, ptr %6, align 8, !tbaa !22
  %100 = getelementptr inbounds nuw %struct.MixContext, ptr %99, i32 0, i32 23
  %101 = getelementptr inbounds nuw %struct.FFFrameSync, ptr %100, i32 0, i32 3
  %102 = load ptr, ptr %5, align 8, !tbaa !54
  %103 = getelementptr inbounds nuw %struct.AVFilterLink, ptr %102, i32 0, i32 13
  %104 = load i64, ptr %101, align 4
  %105 = load i64, ptr %103, align 8
  %106 = call i64 @av_rescale_q(i64 noundef %98, i64 %104, i64 %105) #14
  %107 = load ptr, ptr %8, align 8, !tbaa !102
  %108 = getelementptr inbounds nuw %struct.AVFrame, ptr %107, i32 0, i32 9
  store i64 %106, ptr %108, align 8, !tbaa !104
  %109 = load ptr, ptr %7, align 8, !tbaa !99
  %110 = getelementptr inbounds nuw %struct.ThreadData, ptr %9, i32 0, i32 0
  store ptr %109, ptr %110, align 8, !tbaa !108
  %111 = load ptr, ptr %8, align 8, !tbaa !102
  %112 = getelementptr inbounds nuw %struct.ThreadData, ptr %9, i32 0, i32 1
  store ptr %111, ptr %112, align 8, !tbaa !110
  %113 = load ptr, ptr %4, align 8, !tbaa !4
  %114 = load ptr, ptr %6, align 8, !tbaa !22
  %115 = getelementptr inbounds nuw %struct.MixContext, ptr %114, i32 0, i32 18
  %116 = getelementptr inbounds [4 x i32], ptr %115, i64 0, i64 1
  %117 = load i32, ptr %116, align 4, !tbaa !42
  %118 = load ptr, ptr %6, align 8, !tbaa !22
  %119 = getelementptr inbounds nuw %struct.MixContext, ptr %118, i32 0, i32 4
  %120 = load i32, ptr %119, align 4, !tbaa !70
  %121 = icmp sgt i32 %117, %120
  br i1 %121, label %122, label %126

122:                                              ; preds = %94
  %123 = load ptr, ptr %6, align 8, !tbaa !22
  %124 = getelementptr inbounds nuw %struct.MixContext, ptr %123, i32 0, i32 4
  %125 = load i32, ptr %124, align 4, !tbaa !70
  br label %131

126:                                              ; preds = %94
  %127 = load ptr, ptr %6, align 8, !tbaa !22
  %128 = getelementptr inbounds nuw %struct.MixContext, ptr %127, i32 0, i32 18
  %129 = getelementptr inbounds [4 x i32], ptr %128, i64 0, i64 1
  %130 = load i32, ptr %129, align 4, !tbaa !42
  br label %131

131:                                              ; preds = %126, %122
  %132 = phi i32 [ %125, %122 ], [ %130, %126 ]
  %133 = call i32 @ff_filter_execute(ptr noundef %113, ptr noundef @mix_frames, ptr noundef %9, ptr noundef null, i32 noundef %132)
  %134 = load ptr, ptr %5, align 8, !tbaa !54
  %135 = load ptr, ptr %8, align 8, !tbaa !102
  %136 = call i32 @ff_filter_frame(ptr noundef %134, ptr noundef %135)
  store i32 %136, ptr %2, align 4
  store i32 1, ptr %12, align 4
  br label %137

137:                                              ; preds = %131, %93, %64, %63, %43
  call void @llvm.lifetime.end.p0(i64 4, ptr %11) #12
  call void @llvm.lifetime.end.p0(i64 4, ptr %10) #12
  call void @llvm.lifetime.end.p0(i64 16, ptr %9) #12
  call void @llvm.lifetime.end.p0(i64 8, ptr %8) #12
  call void @llvm.lifetime.end.p0(i64 8, ptr %7) #12
  call void @llvm.lifetime.end.p0(i64 8, ptr %6) #12
  call void @llvm.lifetime.end.p0(i64 8, ptr %5) #12
  call void @llvm.lifetime.end.p0(i64 8, ptr %4) #12
  %138 = load i32, ptr %2, align 4
  ret i32 %138
}