; Function Attrs: nounwind uwtable
define internal i32 @process_frame(ptr noundef readonly captures(none) %0) #1 {
  %2 = alloca %struct.ThreadData, align 8
  %3 = getelementptr inbounds nuw i8, ptr %0, i64 8
  %4 = load ptr, ptr %3, align 8, !tbaa !84
  %5 = getelementptr inbounds nuw i8, ptr %4, i64 56
  %6 = load ptr, ptr %5, align 8, !tbaa !85
  %7 = load ptr, ptr %6, align 8, !tbaa !54
  %8 = getelementptr inbounds nuw i8, ptr %0, i64 48
  %9 = load ptr, ptr %8, align 8, !tbaa !86
  %10 = getelementptr inbounds nuw i8, ptr %9, i64 168
  %11 = load ptr, ptr %10, align 8, !tbaa !37
  call void @llvm.lifetime.start.p0(i64 16, ptr nonnull %2) #12
  %12 = getelementptr inbounds nuw i8, ptr %9, i64 24
  %13 = load i32, ptr %12, align 8, !tbaa !36
  %14 = icmp sgt i32 %13, 0
  br i1 %14, label %.lr.ph, label %._crit_edge

.lr.ph:                                           ; preds = %1
  %15 = getelementptr inbounds nuw i8, ptr %9, i64 176
  br label %20

16:                                               ; preds = %20
  %indvars.iv.next = add nuw nsw i64 %indvars.iv, 1
  %17 = load i32, ptr %12, align 8, !tbaa !36
  %18 = sext i32 %17 to i64
  %19 = icmp slt i64 %indvars.iv.next, %18
  br i1 %19, label %20, label %._crit_edge, !llvm.loop !87

20:                                               ; preds = %.lr.ph, %16
  %indvars.iv = phi i64 [ 0, %.lr.ph ], [ %indvars.iv.next, %16 ]
  %21 = getelementptr inbounds nuw ptr, ptr %11, i64 %indvars.iv
  %22 = trunc nuw nsw i64 %indvars.iv to i32
  %23 = tail call i32 @ff_framesync_get_frame(ptr noundef nonnull %15, i32 noundef %22, ptr noundef %21, i32 noundef 0) #12
  %24 = icmp slt i32 %23, 0
  br i1 %24, label %.loopexit, label %16

._crit_edge:                                      ; preds = %16, %1
  %25 = getelementptr inbounds nuw i8, ptr %4, i64 128
  %26 = load i32, ptr %25, align 8, !tbaa !88
  %.not = icmp eq i32 %26, 0
  br i1 %.not, label %41, label %27

27:                                               ; preds = %._crit_edge
  %28 = load ptr, ptr %10, align 8, !tbaa !37
  %29 = load ptr, ptr %28, align 8, !tbaa !89
  %30 = tail call ptr @av_frame_clone(ptr noundef %29) #12
  %.not45 = icmp eq ptr %30, null
  br i1 %.not45, label %.loopexit, label %31

31:                                               ; preds = %27
  %32 = getelementptr inbounds nuw i8, ptr %9, i64 208
  %33 = load i64, ptr %32, align 8, !tbaa !90
  %34 = getelementptr inbounds nuw i8, ptr %9, i64 196
  %35 = getelementptr inbounds nuw i8, ptr %7, i64 96
  %36 = load i64, ptr %34, align 4
  %37 = load i64, ptr %35, align 8
  %38 = tail call i64 @av_rescale_q(i64 noundef %33, i64 %36, i64 %37) #13
  %39 = getelementptr inbounds nuw i8, ptr %30, i64 136
  store i64 %38, ptr %39, align 8, !tbaa !91
  %40 = tail call i32 @ff_filter_frame(ptr noundef %7, ptr noundef nonnull %30) #12
  br label %.loopexit

41:                                               ; preds = %._crit_edge
  %42 = getelementptr inbounds nuw i8, ptr %7, i64 40
  %43 = load i32, ptr %42, align 8, !tbaa !57
  %44 = getelementptr inbounds nuw i8, ptr %7, i64 44
  %45 = load i32, ptr %44, align 4, !tbaa !56
  %46 = tail call ptr @ff_get_video_buffer(ptr noundef %7, i32 noundef %43, i32 noundef %45) #12
  %.not44 = icmp eq ptr %46, null
  br i1 %.not44, label %.loopexit, label %47

47:                                               ; preds = %41
  %48 = getelementptr inbounds nuw i8, ptr %9, i64 208
  %49 = load i64, ptr %48, align 8, !tbaa !90
  %50 = getelementptr inbounds nuw i8, ptr %9, i64 196
  %51 = getelementptr inbounds nuw i8, ptr %7, i64 96
  %52 = load i64, ptr %50, align 4
  %53 = load i64, ptr %51, align 8
  %54 = tail call i64 @av_rescale_q(i64 noundef %49, i64 %52, i64 %53) #13
  %55 = getelementptr inbounds nuw i8, ptr %46, i64 136
  store i64 %54, ptr %55, align 8, !tbaa !91
  store ptr %11, ptr %2, align 8, !tbaa !95
  %56 = getelementptr inbounds nuw i8, ptr %2, i64 8
  store ptr %46, ptr %56, align 8, !tbaa !97
  %57 = getelementptr inbounds nuw i8, ptr %9, i64 108
  %58 = load i32, ptr %57, align 4, !tbaa !69
  %59 = getelementptr inbounds nuw i8, ptr %9, i64 28
  %60 = load i32, ptr %59, align 4, !tbaa !59
  %. = tail call i32 @llvm.smin.i32(i32 %58, i32 %60)
  %61 = call i32 @ff_filter_execute(ptr noundef nonnull %4, ptr noundef nonnull @mix_frames, ptr noundef nonnull %2, ptr noundef null, i32 noundef %.) #12
  %62 = call i32 @ff_filter_frame(ptr noundef nonnull %7, ptr noundef nonnull %46) #12
  br label %.loopexit

.loopexit:                                        ; preds = %20, %41, %27, %47, %31
  %.0 = phi i32 [ %40, %31 ], [ %62, %47 ], [ -12, %27 ], [ -12, %41 ], [ %23, %20 ]
  call void @llvm.lifetime.end.p0(i64 16, ptr nonnull %2) #12
  ret i32 %.0
}